; ModuleID = 'bench/openssl/original/a_octet.ll'
source_filename = "bench/openssl/original/a_octet.ll"
target datalayout = "e-m:e-p270:32:32-p271:32:32-p272:64:64-i64:64-i128:128-f80:128-n8:16:32:64-S128"
target triple = "x86_64-pc-linux-gnu"

; Function Attrs: nounwind uwtable
define ptr @ASN1_OCTET_STRING_dup(ptr noundef %0) local_unnamed_addr #0 {
  %2 = tail call ptr @ASN1_STRING_dup(ptr noundef %0) #2
  ret ptr %2
}

declare ptr @ASN1_STRING_dup(ptr noundef) local_unnamed_addr #1

; Function Attrs: nounwind uwtable
define i32 @ASN1_OCTET_STRING_cmp(ptr noundef %0, ptr noundef %1) local_unnamed_addr #0 {
  %3 = tail call i32 @ASN1_STRING_cmp(ptr noundef %0, ptr noundef %1) #2
  ret i32 %3
}

declare i32 @ASN1_STRING_cmp(ptr noundef, ptr noundef) local_unnamed_addr #1

; Function Attrs: nounwind uwtable
define i32 @ASN1_OCTET_STRING_set(ptr noundef %0, ptr noundef %1, i32 noundef %2) local_unnamed_addr #0 {
  %4 = tail call i32 @ASN1_STRING_set(ptr noundef %0, ptr noundef %1, i32 noundef %2) #2
  ret i32 %4
}

declare i32 @ASN1_STRING_set(ptr noundef, ptr noundef, i32 noundef) local_unnamed_addr #1


!llvm.module.flags = !{!0, !1, !2}

!0 = !{i32 1, !"wchar_size", i32 4}
!1 = !{i32 8, !"PIC Level", i32 2}
!2 = !{i32 7, !"uwtable", i32 2}
